; Function Attrs: nounwind sspstrong uwtable
define hidden void @rb_undef_methods_from(i64 noundef %0, i64 noundef %1) local_unnamed_addr #0 {
  %3 = inttoptr i64 %1 to ptr
  %4 = getelementptr inbounds nuw i8, ptr %3, i64 24
  %5 = load ptr, ptr %4, align 8, !tbaa !33
  %.not = icmp eq ptr %5, null
  br i1 %.not, label %8, label %6

6:                                                ; preds = %2
  %7 = inttoptr i64 %0 to ptr
  tail call void @rb_id_table_foreach(ptr noundef nonnull %5, ptr noundef nonnull @undef_method_i, ptr noundef %7) #19
  br label %8

8:                                                ; preds = %6, %2
  ret void
}